target datalayout = "e-m:e-p270:32:32-p271:32:32-p272:64:64-i64:64-i128:128-f80:128-n8:16:32:64-S128"
target triple = "x86_64-pc-linux-gnu"

%struct._asn1_ctx_t = type { i32, i32, i8, ptr, ptr, ptr, ptr, ptr, %struct.anon.2, %struct.anon.5, %struct.anon.6, ptr }
%struct.anon.2 = type { i32, i8, i8, i8, ptr, ptr, i32, i32, ptr, ptr, ptr, %union.anon }
%union.anon = type { %struct.anon.3 }
%struct.anon.3 = type { ptr }
%struct.anon.5 = type { ptr, ptr, ptr }
%struct.anon.6 = type { i32, i8, ptr, i32, i32, ptr, ptr, ptr, %union.anon.7 }
%union.anon.7 = type { %struct.anon.8 }
%struct.anon.8 = type { ptr }

@hf_uds_signedCertificate = internal global i32 0, align 4
@ett_uds_ars_certificate = internal global i32 0, align 4
@uds_certificate_decoding_config = internal global i32 -1, align 4

; Function Attrs: null_pointer_is_valid sspstrong uwtable
define internal i32 @dissect_uds_certificates_into_tree(ptr noundef %0, ptr noundef %1, ptr noundef %2, ptr noundef %3, i32 noundef %4, i32 noundef %5) #0 {
  %7 = alloca i32, align 4
  %8 = alloca ptr, align 8
  %9 = alloca ptr, align 8
  %10 = alloca ptr, align 8
  %11 = alloca ptr, align 8
  %12 = alloca i32, align 4
  %13 = alloca i32, align 4
  %14 = alloca %struct._asn1_ctx_t, align 8
  %15 = alloca i32, align 4
  %16 = alloca ptr, align 8
  %17 = alloca ptr, align 8
  store ptr %0, ptr %8, align 8
  store ptr %1, ptr %9, align 8
  store ptr %2, ptr %10, align 8
  store ptr %3, ptr %11, align 8
  store i32 %4, ptr %12, align 4
  store i32 %5, ptr %13, align 4
  call void @llvm.lifetime.start.p0(i64 208, ptr %14) #12
  %18 = load ptr, ptr %10, align 8
  %19 = icmp ne ptr %18, null
  br i1 %19, label %20, label %32

20:                                               ; preds = %6
  %21 = load ptr, ptr %8, align 8
  %22 = icmp ne ptr %21, null
  br i1 %22, label %23, label %32

23:                                               ; preds = %20
  %24 = load ptr, ptr %11, align 8
  %25 = icmp ne ptr %24, null
  br i1 %25, label %26, label %32

26:                                               ; preds = %23
  %27 = load i32, ptr %13, align 4
  %28 = icmp eq i32 %27, 0
  br i1 %28, label %32, label %29

29:                                               ; preds = %26
  %30 = load i32, ptr @uds_certificate_decoding_config, align 4
  %31 = icmp eq i32 %30, -1
  br i1 %31, label %32, label %33

32:                                               ; preds = %29, %26, %23, %20, %6
  store i32 0, ptr %7, align 4
  store i32 1, ptr %15, align 4
  br label %65

33:                                               ; preds = %29
  call void @llvm.lifetime.start.p0(i64 8, ptr %16) #12
  %34 = load ptr, ptr %8, align 8
  %35 = load i32, ptr %12, align 4
  %36 = load i32, ptr %13, align 4
  %37 = call ptr @tvb_new_subset_length(ptr noundef %34, i32 noundef %35, i32 noundef %36)
  store ptr %37, ptr %16, align 8
  %38 = load ptr, ptr %9, align 8
  call void @asn1_ctx_init(ptr noundef %14, i32 noundef 0, i1 noundef zeroext true, ptr noundef %38)
  call void @llvm.lifetime.start.p0(i64 8, ptr %17) #12
  %39 = load ptr, ptr %11, align 8
  %40 = load i32, ptr @ett_uds_ars_certificate, align 4
  %41 = call ptr @proto_item_add_subtree(ptr noundef %39, i32 noundef %40)
  store ptr %41, ptr %17, align 8
  %42 = load i32, ptr @uds_certificate_decoding_config, align 4
  switch i32 %42, label %63 [
    i32 0, label %43
    i32 1, label %48
    i32 2, label %53
    i32 3, label %58
  ]

43:                                               ; preds = %33
  %44 = load ptr, ptr %16, align 8
  %45 = load ptr, ptr %17, align 8
  %46 = load i32, ptr @hf_uds_signedCertificate, align 4
  %47 = call i32 @dissect_x509af_Certificate(i1 noundef zeroext false, ptr noundef %44, i32 noundef 0, ptr noundef %14, ptr noundef %45, i32 noundef %46)
  store i32 %47, ptr %7, align 4
  store i32 1, ptr %15, align 4
  br label %64

48:                                               ; preds = %33
  %49 = load ptr, ptr %16, align 8
  %50 = load ptr, ptr %17, align 8
  %51 = load i32, ptr @hf_uds_signedCertificate, align 4
  %52 = call i32 @dissect_x509af_Certificate(i1 noundef zeroext true, ptr noundef %49, i32 noundef 0, ptr noundef %14, ptr noundef %50, i32 noundef %51)
  store i32 %52, ptr %7, align 4
  store i32 1, ptr %15, align 4
  br label %64

53:                                               ; preds = %33
  %54 = load ptr, ptr %16, align 8
  %55 = load ptr, ptr %17, align 8
  %56 = load i32, ptr @hf_uds_signedCertificate, align 4
  %57 = call i32 @dissect_x509af_Certificates(i1 noundef zeroext false, ptr noundef %54, i32 noundef 0, ptr noundef %14, ptr noundef %55, i32 noundef %56)
  store i32 %57, ptr %7, align 4
  store i32 1, ptr %15, align 4
  br label %64

58:                                               ; preds = %33
  %59 = load ptr, ptr %16, align 8
  %60 = load ptr, ptr %17, align 8
  %61 = load i32, ptr @hf_uds_signedCertificate, align 4
  %62 = call i32 @dissect_x509af_Certificates(i1 noundef zeroext true, ptr noundef %59, i32 noundef 0, ptr noundef %14, ptr noundef %60, i32 noundef %61)
  store i32 %62, ptr %7, align 4
  store i32 1, ptr %15, align 4
  br label %64

63:                                               ; preds = %33
  store i32 0, ptr %7, align 4
  store i32 1, ptr %15, align 4
  br label %64

64:                                               ; preds = %63, %58, %53, %48, %43
  call void @llvm.lifetime.end.p0(i64 8, ptr %17) #12
  call void @llvm.lifetime.end.p0(i64 8, ptr %16) #12
  br label %65

65:                                               ; preds = %64, %32
  call void @llvm.lifetime.end.p0(i64 208, ptr %14) #12
  %66 = load i32, ptr %7, align 4
  ret i32 %66
}