; Function Attrs: null_pointer_is_valid sspstrong uwtable
define internal fastcc void @dissect_uds_certificates_into_tree(ptr noundef %0, ptr noundef %1, ptr noundef readnone captures(address_is_null) %2, ptr noundef %3, i32 noundef %4, i32 noundef %5) unnamed_addr #0 {
  %7 = alloca %struct._asn1_ctx_t, align 8
  call void @llvm.lifetime.start.p0(i64 208, ptr nonnull %7) #14
  %8 = icmp eq ptr %2, null
  %9 = icmp eq ptr %0, null
  %or.cond.not28 = or i1 %9, %8
  %10 = icmp eq ptr %3, null
  %or.cond3.not25 = or i1 %or.cond.not28, %10
  %11 = icmp eq i32 %5, 0
  %or.cond5 = or i1 %or.cond3.not25, %11
  %12 = load i32, ptr @uds_certificate_decoding_config, align 4
  %13 = icmp eq i32 %12, -1
  %or.cond7 = select i1 %or.cond5, i1 true, i1 %13
  br i1 %or.cond7, label %31, label %14

14:                                               ; preds = %6
  %15 = tail call ptr @tvb_new_subset_length(ptr noundef nonnull %0, i32 noundef %4, i32 noundef %5)
  call void @asn1_ctx_init(ptr noundef nonnull %7, i32 noundef 0, i1 noundef zeroext true, ptr noundef %1)
  %16 = load i32, ptr @ett_uds_ars_certificate, align 4
  %17 = call ptr @proto_item_add_subtree(ptr noundef nonnull %3, i32 noundef %16)
  %18 = load i32, ptr @uds_certificate_decoding_config, align 4
  switch i32 %18, label %31 [
    i32 0, label %19
    i32 1, label %22
    i32 2, label %25
    i32 3, label %28
  ]

19:                                               ; preds = %14
  %20 = load i32, ptr @hf_uds_signedCertificate, align 4
  %21 = call i32 @dissect_x509af_Certificate(i1 noundef zeroext false, ptr noundef %15, i32 noundef 0, ptr noundef nonnull %7, ptr noundef %17, i32 noundef %20)
  br label %31

22:                                               ; preds = %14
  %23 = load i32, ptr @hf_uds_signedCertificate, align 4
  %24 = call i32 @dissect_x509af_Certificate(i1 noundef zeroext true, ptr noundef %15, i32 noundef 0, ptr noundef nonnull %7, ptr noundef %17, i32 noundef %23)
  br label %31

25:                                               ; preds = %14
  %26 = load i32, ptr @hf_uds_signedCertificate, align 4
  %27 = call i32 @dissect_x509af_Certificates(i1 noundef zeroext false, ptr noundef %15, i32 noundef 0, ptr noundef nonnull %7, ptr noundef %17, i32 noundef %26)
  br label %31

28:                                               ; preds = %14
  %29 = load i32, ptr @hf_uds_signedCertificate, align 4
  %30 = call i32 @dissect_x509af_Certificates(i1 noundef zeroext true, ptr noundef %15, i32 noundef 0, ptr noundef nonnull %7, ptr noundef %17, i32 noundef %29)
  br label %31

31:                                               ; preds = %19, %22, %25, %28, %14, %6
  call void @llvm.lifetime.end.p0(i64 208, ptr nonnull %7) #14
  ret void
}